(lp0
VPantropical_Spotted_Dolphin
p1
aVSea_Otter
p2
aVGrampus,_Risso's_Dolphin
p3
aVShort-Finned_(Pacific)_Pilot_Whale
p4
aVWhite-sided_Dolphin
p5
aVAtlantic_Spotted_Dolphin
p6
aVDall's_Porpoise
p7
aVGray_Whale
p8
aVHarp_Seal
p9
aVHarbor_Porpoise
p10
aVFin,_Finback_Whale
p11
aVLong_Beaked_(Pacific)_Common_Dolphin
p12
aVHeaviside's_Dolphin
p13
aVCommerson's_Dolphin
p14
aVBlue_Whale
p15
aVWalrus
p16
aVFinless_Porpoise
p17
aVSpotted_Seal
p18
aVNew_Zealand_Fur_Seal
p19
aVCommon_Dolphin
p20
aVGray_Seal
p21
aVFraser's_Dolphin
p22
aVBoutu,_Amazon_River_Dolphin
p23
aVClymene_Dolphin
p24
aVHumpback_Whale
p25
aVWeddell_Seal
p26
aVLong-Finned_Pilot_Whale
p27
aVSteller_Sea_Lion
p28
aVMinke_Whale
p29
aVSpinner_Dolphin
p30
aVStriped_Dolphin
p31
aVKiller_Whale
p32
aVWhite-beaked_Dolphin
p33
aVRoss_Seal
p34
aVLeopard_Seal
p35
aVMelon_Headed_Whale
p36
aVBearded_Seal
p37
aVTucuxi_Dolphin
p38
aVSouthern_Right_Whale
p39
aVRinged_Seal
p40
aVWest_Indian_Manatee
p41
aVNarwhal
p42
aVRibbon_Seal
p43
aVSperm_Whale
p44
aVIrawaddy_Dolphin
p45
aVRough-Toothed_Dolphin
p46
aVBeluga,_White_Whale
p47
aVNorthern_Right_Whale
p48
aVFalse_Killer_Whale
p49
aVDusky_Dolphin
p50
aVJuan_Fernandez_Fur_Seal
p51
aVHooded_Seal
p52
aVBottlenose_Dolphin
p53
aVHarbour_Seal
p54
aVBowhead_Whale
p55
a.