(dp0
VBearded_Seal
p1
I160
sVBeluga,_White_Whale
p2
I2
sVBlue_Whale
p3
I431
sVBottlenose_Dolphin
p4
I109
sVBowhead_Whale
p5
I1091
sVClymene_Dolphin
p6
I660
sVCommon_Dolphin
p7
I20
sVDall's_Porpoise
p8
I22
sVDusky_Dolphin
p9
I171
sVFalse_Killer_Whale
p10
I94
sVFin,_Finback_Whale
p11
I455
sVFraser's_Dolphin
p12
I15
sVGrampus,_Risso's_Dolphin
p13
I147
sVGray_Seal
p14
I4
sVGray_Whale
p15
I71
sVHarbor_Porpoise
p16
I52
sVHarp_Seal
p17
I109
sVHeaviside's_Dolphin
p18
I38
sVHumpback_Whale
p19
I167
sVIrawaddy_Dolphin
p20
I3
sVJuan_Fernandez_Fur_Seal
p21
I10
sVKiller_Whale
p22
I2060
sVLeopard_Seal
p23
I157
sVLong-Finned_Pilot_Whale
p24
I40
sVLong_Beaked_(Pacific)_Common_Dolphin
p25
I203
sVMinke_Whale
p26
I174
sVNarwhal
p27
I38
sVNew_Zealand_Fur_Seal
p28
I4
sVNorthern_Right_Whale
p29
I191
sVPantropical_Spotted_Dolphin
p30
I373
sVRibbon_Seal
p31
I17
sVRinged_Seal
p32
I24
sVRough-Toothed_Dolphin
p33
I99
sVSea_Otter
p34
I2
sVShort-Finned_(Pacific)_Pilot_Whale
p35
I218
sVSouthern_Right_Whale
p36
I8
sVSperm_Whale
p37
I7616
sVSpotted_Seal
p38
I15
sVSteller_Sea_Lion
p39
I7
sVStriped_Dolphin
p40
I25
sVTucuxi_Dolphin
p41
I8
sVWalrus
p42
I202
sVWeddell_Seal
p43
I1332
sVWest_Indian_Manatee
p44
I390
sVWhite-beaked_Dolphin
p45
I69
sVWhite-sided_Dolphin
p46
I694
s.