(dp0
VAtlantic_Spotted_Dolphin
p1
I12
sVBearded_Seal
p2
I161
sVBeluga,_White_Whale
p3
I24
sVBlue_Whale
p4
I432
sVBottlenose_Dolphin
p5
I127
sVBoutu,_Amazon_River_Dolphin
p6
I3
sVBowhead_Whale
p7
I1152
sVClymene_Dolphin
p8
I937
sVCommerson's_Dolphin
p9
I2
sVCommon_Dolphin
p10
I26
sVDall's_Porpoise
p11
I72
sVDusky_Dolphin
p12
I191
sVFalse_Killer_Whale
p13
I96
sVFin,_Finback_Whale
p14
I459
sVFinless_Porpoise
p15
I5
sVFraser's_Dolphin
p16
I41
sVGrampus,_Risso's_Dolphin
p17
I158
sVGray_Seal
p18
I7
sVGray_Whale
p19
I99
sVHarbor_Porpoise
p20
I92
sVHarbour_Seal
p21
I1
sVHarp_Seal
p22
I124
sVHeaviside's_Dolphin
p23
I47
sVHooded_Seal
p24
I8
sVHumpback_Whale
p25
I245
sVIrawaddy_Dolphin
p26
I19
sVJuan_Fernandez_Fur_Seal
p27
I13
sVKiller_Whale
p28
I2079
sVLeopard_Seal
p29
I205
sVLong-Finned_Pilot_Whale
p30
I45
sVLong_Beaked_(Pacific)_Common_Dolphin
p31
I229
sVMelon_Headed_Whale
p32
I3
sVMinke_Whale
p33
I174
sVNarwhal
p34
I44
sVNew_Zealand_Fur_Seal
p35
I4
sVNorthern_Right_Whale
p36
I223
sVPantropical_Spotted_Dolphin
p37
I427
sVRibbon_Seal
p38
I31
sVRinged_Seal
p39
I58
sVRoss_Seal
p40
I8
sVRough-Toothed_Dolphin
p41
I108
sVSea_Otter
p42
I6
sVShort-Finned_(Pacific)_Pilot_Whale
p43
I274
sVSouthern_Right_Whale
p44
I12
sVSperm_Whale
p45
I7745
sVSpinner_Dolphin
p46
I4
sVSpotted_Seal
p47
I17
sVSteller_Sea_Lion
p48
I9
sVStriped_Dolphin
p49
I82
sVTucuxi_Dolphin
p50
I19
sVWalrus
p51
I242
sVWeddell_Seal
p52
I1485
sVWest_Indian_Manatee
p53
I400
sVWhite-beaked_Dolphin
p54
I77
sVWhite-sided_Dolphin
p55
I711
s.